target datalayout = "e-m:e-p270:32:32-p271:32:32-p272:64:64-i64:64-i128:128-f80:128-n8:16:32:64-S128"
target triple = "x86_64-unknown-linux-gnu"

%struct.QTailQLink = type { ptr, ptr }
%struct.Object = type { ptr, ptr, ptr, i32, ptr }
%struct.AHCIDevice = type { %struct.IDEDMA, %struct.IDEBus, i32, i32, i32, %struct.AHCIPortRegs, ptr, ptr, ptr, ptr, i8, i32, i8, ptr, [32 x %struct.NCQTransferState], %struct.MemReentrancyGuard }
%struct.IDEDMA = type { ptr, %struct.QEMUIOVector, ptr }
%struct.QEMUIOVector = type { ptr, i32, %union.anon.3 }
%union.anon.3 = type { %struct.anon.4 }
%struct.anon.4 = type { i32, %struct.iovec }
%struct.iovec = type { ptr, i64 }
%struct.IDEBus = type { %struct.BusState, ptr, ptr, [2 x %struct.IDEState], ptr, i32, i32, ptr, i8, i8, ptr, i32, i8, i64, i32, %struct.PortioList, %struct.PortioList, ptr }
%struct.BusState = type { %struct.Object, ptr, ptr, ptr, i32, i8, i8, i32, %union.BusChildHead, %struct.BusStateEntry, %struct.ResettableState }
%union.BusChildHead = type { %struct.QTailQLink }
%struct.BusStateEntry = type { ptr, ptr }
%struct.ResettableState = type { i32, i8, i8 }
%struct.IDEState = type { ptr, i8, i32, i32, i32, i32, i32, i32, i32, i64, i32, i32, [512 x i8], i32, [21 x i8], [41 x i8], i64, i8, i8, i32, i8, i8, i8, i8, i8, i8, i8, i8, i8, i8, i8, i8, i8, ptr, [9 x i8], %struct.unreported_events, i8, i8, i8, i8, i8, i32, i32, i32, i32, i32, i32, %struct.BlockAcctCookie, ptr, %struct.QEMUIOVector, %struct.anon.6, i64, i32, %struct.QEMUSGList, i32, ptr, ptr, ptr, ptr, i32, i32, i32, i8, ptr, i32, i8, i32, ptr, i32, i32, i8, i8, i32, i8, ptr, i32 }
%struct.unreported_events = type { i8, i8 }
%struct.BlockAcctCookie = type { i64, i64, i32 }
%struct.anon.6 = type { ptr }
%struct.QEMUSGList = type { ptr, i32, i32, i64, ptr, ptr }
%struct.PortioList = type { ptr, ptr, ptr, i32, ptr, ptr, ptr, i8 }
%struct.AHCIPortRegs = type { i32, i32, i32, i32, i32, i32, i32, i32, i32, i32, i32, i32, i32, i32, i32, i32 }
%struct.NCQTransferState = type { ptr, ptr, ptr, %struct.QEMUSGList, %struct.BlockAcctCookie, i32, i64, i8, i8, i8, i8, i8 }
%struct.MemReentrancyGuard = type { i8 }

; Function Attrs: nounwind sspstrong uwtable
define internal zeroext i1 @ahci_write_fis_d2h(ptr noundef %ad, i1 noundef zeroext %d2h_fis_i) #0 {
entry:
  %retval = alloca i1, align 1
  %ad.addr = alloca ptr, align 8
  %d2h_fis_i.addr = alloca i8, align 1
  %pr = alloca ptr, align 8
  %d2h_fis = alloca ptr, align 8
  %i = alloca i32, align 4
  %s = alloca ptr, align 8
  store ptr %ad, ptr %ad.addr, align 8
  %frombool = zext i1 %d2h_fis_i to i8
  store i8 %frombool, ptr %d2h_fis_i.addr, align 1
  %0 = load ptr, ptr %ad.addr, align 8
  %port_regs = getelementptr inbounds %struct.AHCIDevice, ptr %0, i32 0, i32 5
  store ptr %port_regs, ptr %pr, align 8
  %1 = load ptr, ptr %ad.addr, align 8
  %port = getelementptr inbounds %struct.AHCIDevice, ptr %1, i32 0, i32 1
  %ifs = getelementptr inbounds %struct.IDEBus, ptr %port, i32 0, i32 3
  %arrayidx = getelementptr [2 x %struct.IDEState], ptr %ifs, i64 0, i64 0
  store ptr %arrayidx, ptr %s, align 8
  %2 = load ptr, ptr %ad.addr, align 8
  %res_fis = getelementptr inbounds %struct.AHCIDevice, ptr %2, i32 0, i32 9
  %3 = load ptr, ptr %res_fis, align 8
  %tobool = icmp ne ptr %3, null
  br i1 %tobool, label %lor.lhs.false, label %if.then

lor.lhs.false:                                    ; preds = %entry
  %4 = load ptr, ptr %pr, align 8
  %cmd = getelementptr inbounds %struct.AHCIPortRegs, ptr %4, i32 0, i32 6
  %5 = load i32, ptr %cmd, align 4
  %and = and i32 %5, 16
  %tobool1 = icmp ne i32 %and, 0
  br i1 %tobool1, label %if.end, label %if.then

if.then:                                          ; preds = %lor.lhs.false, %entry
  store i1 false, ptr %retval, align 1
  br label %return

if.end:                                           ; preds = %lor.lhs.false
  %6 = load ptr, ptr %ad.addr, align 8
  %res_fis2 = getelementptr inbounds %struct.AHCIDevice, ptr %6, i32 0, i32 9
  %7 = load ptr, ptr %res_fis2, align 8
  %arrayidx3 = getelementptr i8, ptr %7, i64 64
  store ptr %arrayidx3, ptr %d2h_fis, align 8
  %8 = load ptr, ptr %d2h_fis, align 8
  %arrayidx4 = getelementptr i8, ptr %8, i64 0
  store i8 52, ptr %arrayidx4, align 1
  %9 = load i8, ptr %d2h_fis_i.addr, align 1
  %tobool5 = trunc i8 %9 to i1
  %cond = select i1 %tobool5, i32 64, i32 0
  %conv = trunc i32 %cond to i8
  %10 = load ptr, ptr %d2h_fis, align 8
  %arrayidx6 = getelementptr i8, ptr %10, i64 1
  store i8 %conv, ptr %arrayidx6, align 1
  %11 = load ptr, ptr %s, align 8
  %status = getelementptr inbounds %struct.IDEState, ptr %11, i32 0, i32 29
  %12 = load i8, ptr %status, align 1
  %13 = load ptr, ptr %d2h_fis, align 8
  %arrayidx7 = getelementptr i8, ptr %13, i64 2
  store i8 %12, ptr %arrayidx7, align 1
  %14 = load ptr, ptr %s, align 8
  %error = getelementptr inbounds %struct.IDEState, ptr %14, i32 0, i32 18
  %15 = load i8, ptr %error, align 1
  %16 = load ptr, ptr %d2h_fis, align 8
  %arrayidx8 = getelementptr i8, ptr %16, i64 3
  store i8 %15, ptr %arrayidx8, align 1
  %17 = load ptr, ptr %s, align 8
  %sector = getelementptr inbounds %struct.IDEState, ptr %17, i32 0, i32 20
  %18 = load i8, ptr %sector, align 8
  %19 = load ptr, ptr %d2h_fis, align 8
  %arrayidx9 = getelementptr i8, ptr %19, i64 4
  store i8 %18, ptr %arrayidx9, align 1
  %20 = load ptr, ptr %s, align 8
  %lcyl = getelementptr inbounds %struct.IDEState, ptr %20, i32 0, i32 21
  %21 = load i8, ptr %lcyl, align 1
  %22 = load ptr, ptr %d2h_fis, align 8
  %arrayidx10 = getelementptr i8, ptr %22, i64 5
  store i8 %21, ptr %arrayidx10, align 1
  %23 = load ptr, ptr %s, align 8
  %hcyl = getelementptr inbounds %struct.IDEState, ptr %23, i32 0, i32 22
  %24 = load i8, ptr %hcyl, align 2
  %25 = load ptr, ptr %d2h_fis, align 8
  %arrayidx11 = getelementptr i8, ptr %25, i64 6
  store i8 %24, ptr %arrayidx11, align 1
  %26 = load ptr, ptr %s, align 8
  %select = getelementptr inbounds %struct.IDEState, ptr %26, i32 0, i32 28
  %27 = load i8, ptr %select, align 8
  %28 = load ptr, ptr %d2h_fis, align 8
  %arrayidx12 = getelementptr i8, ptr %28, i64 7
  store i8 %27, ptr %arrayidx12, align 1
  %29 = load ptr, ptr %s, align 8
  %hob_sector = getelementptr inbounds %struct.IDEState, ptr %29, i32 0, i32 25
  %30 = load i8, ptr %hob_sector, align 1
  %31 = load ptr, ptr %d2h_fis, align 8
  %arrayidx13 = getelementptr i8, ptr %31, i64 8
  store i8 %30, ptr %arrayidx13, align 1
  %32 = load ptr, ptr %s, align 8
  %hob_lcyl = getelementptr inbounds %struct.IDEState, ptr %32, i32 0, i32 26
  %33 = load i8, ptr %hob_lcyl, align 2
  %34 = load ptr, ptr %d2h_fis, align 8
  %arrayidx14 = getelementptr i8, ptr %34, i64 9
  store i8 %33, ptr %arrayidx14, align 1
  %35 = load ptr, ptr %s, align 8
  %hob_hcyl = getelementptr inbounds %struct.IDEState, ptr %35, i32 0, i32 27
  %36 = load i8, ptr %hob_hcyl, align 1
  %37 = load ptr, ptr %d2h_fis, align 8
  %arrayidx15 = getelementptr i8, ptr %37, i64 10
  store i8 %36, ptr %arrayidx15, align 1
  %38 = load ptr, ptr %d2h_fis, align 8
  %arrayidx16 = getelementptr i8, ptr %38, i64 11
  store i8 0, ptr %arrayidx16, align 1
  %39 = load ptr, ptr %s, align 8
  %nsector = getelementptr inbounds %struct.IDEState, ptr %39, i32 0, i32 19
  %40 = load i32, ptr %nsector, align 4
  %and17 = and i32 %40, 255
  %conv18 = trunc i32 %and17 to i8
  %41 = load ptr, ptr %d2h_fis, align 8
  %arrayidx19 = getelementptr i8, ptr %41, i64 12
  store i8 %conv18, ptr %arrayidx19, align 1
  %42 = load ptr, ptr %s, align 8
  %nsector20 = getelementptr inbounds %struct.IDEState, ptr %42, i32 0, i32 19
  %43 = load i32, ptr %nsector20, align 4
  %shr = lshr i32 %43, 8
  %and21 = and i32 %shr, 255
  %conv22 = trunc i32 %and21 to i8
  %44 = load ptr, ptr %d2h_fis, align 8
  %arrayidx23 = getelementptr i8, ptr %44, i64 13
  store i8 %conv22, ptr %arrayidx23, align 1
  store i32 14, ptr %i, align 4
  br label %for.cond

for.cond:                                         ; preds = %for.inc, %if.end
  %45 = load i32, ptr %i, align 4
  %cmp = icmp slt i32 %45, 20
  br i1 %cmp, label %for.body, label %for.end

for.body:                                         ; preds = %for.cond
  %46 = load ptr, ptr %d2h_fis, align 8
  %47 = load i32, ptr %i, align 4
  %idxprom = sext i32 %47 to i64
  %arrayidx25 = getelementptr i8, ptr %46, i64 %idxprom
  store i8 0, ptr %arrayidx25, align 1
  br label %for.inc

for.inc:                                          ; preds = %for.body
  %48 = load i32, ptr %i, align 4
  %inc = add i32 %48, 1
  store i32 %inc, ptr %i, align 4
  br label %for.cond, !llvm.loop !17

for.end:                                          ; preds = %for.cond
  %49 = load ptr, ptr %ad.addr, align 8
  %port26 = getelementptr inbounds %struct.AHCIDevice, ptr %49, i32 0, i32 1
  %ifs27 = getelementptr inbounds %struct.IDEBus, ptr %port26, i32 0, i32 3
  %arrayidx28 = getelementptr [2 x %struct.IDEState], ptr %ifs27, i64 0, i64 0
  %error29 = getelementptr inbounds %struct.IDEState, ptr %arrayidx28, i32 0, i32 18
  %50 = load i8, ptr %error29, align 1
  %conv30 = zext i8 %50 to i32
  %shl = shl i32 %conv30, 8
  %51 = load ptr, ptr %ad.addr, align 8
  %port31 = getelementptr inbounds %struct.AHCIDevice, ptr %51, i32 0, i32 1
  %ifs32 = getelementptr inbounds %struct.IDEBus, ptr %port31, i32 0, i32 3
  %arrayidx33 = getelementptr [2 x %struct.IDEState], ptr %ifs32, i64 0, i64 0
  %status34 = getelementptr inbounds %struct.IDEState, ptr %arrayidx33, i32 0, i32 29
  %52 = load i8, ptr %status34, align 1
  %conv35 = zext i8 %52 to i32
  %or = or i32 %shl, %conv35
  %53 = load ptr, ptr %pr, align 8
  %tfdata = getelementptr inbounds %struct.AHCIPortRegs, ptr %53, i32 0, i32 8
  store i32 %or, ptr %tfdata, align 4
  %54 = load ptr, ptr %d2h_fis, align 8
  %arrayidx36 = getelementptr i8, ptr %54, i64 2
  %55 = load i8, ptr %arrayidx36, align 1
  %conv37 = zext i8 %55 to i32
  %and38 = and i32 %conv37, 1
  %tobool39 = icmp ne i32 %and38, 0
  br i1 %tobool39, label %if.then40, label %if.else

if.then40:                                        ; preds = %for.end
  %56 = load ptr, ptr %ad.addr, align 8
  %hba = getelementptr inbounds %struct.AHCIDevice, ptr %56, i32 0, i32 6
  %57 = load ptr, ptr %hba, align 8
  %58 = load ptr, ptr %ad.addr, align 8
  call void @ahci_trigger_irq(ptr noundef %57, ptr noundef %58, i32 noundef 30)
  br label %if.end45

if.else:                                          ; preds = %for.end
  %59 = load i8, ptr %d2h_fis_i.addr, align 1
  %tobool41 = trunc i8 %59 to i1
  br i1 %tobool41, label %if.then42, label %if.end44

if.then42:                                        ; preds = %if.else
  %60 = load ptr, ptr %ad.addr, align 8
  %hba43 = getelementptr inbounds %struct.AHCIDevice, ptr %60, i32 0, i32 6
  %61 = load ptr, ptr %hba43, align 8
  %62 = load ptr, ptr %ad.addr, align 8
  call void @ahci_trigger_irq(ptr noundef %61, ptr noundef %62, i32 noundef 0)
  br label %if.end44

if.end44:                                         ; preds = %if.then42, %if.else
  br label %if.end45

if.end45:                                         ; preds = %if.end44, %if.then40
  store i1 true, ptr %retval, align 1
  br label %return

return:                                           ; preds = %if.end45, %if.then
  %63 = load i1, ptr %retval, align 1
  ret i1 %63
}

; Function Attrs: nounwind sspstrong uwtable
define internal void @ahci_init_d2h(ptr noundef %ad) #0 {
entry:
  %ad.addr = alloca ptr, align 8
  %ide_state = alloca ptr, align 8
  %pr = alloca ptr, align 8
  store ptr %ad, ptr %ad.addr, align 8
  %0 = load ptr, ptr %ad.addr, align 8
  %port = getelementptr inbounds %struct.AHCIDevice, ptr %0, i32 0, i32 1
  %ifs = getelementptr inbounds %struct.IDEBus, ptr %port, i32 0, i32 3
  %arrayidx = getelementptr [2 x %struct.IDEState], ptr %ifs, i64 0, i64 0
  store ptr %arrayidx, ptr %ide_state, align 8
  %1 = load ptr, ptr %ad.addr, align 8
  %port_regs = getelementptr inbounds %struct.AHCIDevice, ptr %1, i32 0, i32 5
  store ptr %port_regs, ptr %pr, align 8
  %2 = load ptr, ptr %ad.addr, align 8
  %init_d2h_sent = getelementptr inbounds %struct.AHCIDevice, ptr %2, i32 0, i32 12
  %3 = load i8, ptr %init_d2h_sent, align 8
  %tobool = trunc i8 %3 to i1
  br i1 %tobool, label %if.then, label %if.end

if.then:                                          ; preds = %entry
  br label %if.end9

if.end:                                           ; preds = %entry
  %4 = load ptr, ptr %ad.addr, align 8
  %call = call zeroext i1 @ahci_write_fis_d2h(ptr noundef %4, i1 noundef zeroext true)
  br i1 %call, label %if.then1, label %if.end9

if.then1:                                         ; preds = %if.end
  %5 = load ptr, ptr %ad.addr, align 8
  %init_d2h_sent2 = getelementptr inbounds %struct.AHCIDevice, ptr %5, i32 0, i32 12
  store i8 1, ptr %init_d2h_sent2, align 8
  %6 = load ptr, ptr %ide_state, align 8
  %hcyl = getelementptr inbounds %struct.IDEState, ptr %6, i32 0, i32 22
  %7 = load i8, ptr %hcyl, align 2
  %conv = zext i8 %7 to i32
  %shl = shl i32 %conv, 24
  %8 = load ptr, ptr %ide_state, align 8
  %lcyl = getelementptr inbounds %struct.IDEState, ptr %8, i32 0, i32 21
  %9 = load i8, ptr %lcyl, align 1
  %conv3 = zext i8 %9 to i32
  %shl4 = shl i32 %conv3, 16
  %or = or i32 %shl, %shl4
  %10 = load ptr, ptr %ide_state, align 8
  %sector = getelementptr inbounds %struct.IDEState, ptr %10, i32 0, i32 20
  %11 = load i8, ptr %sector, align 8
  %conv5 = zext i8 %11 to i32
  %shl6 = shl i32 %conv5, 8
  %or7 = or i32 %or, %shl6
  %12 = load ptr, ptr %ide_state, align 8
  %nsector = getelementptr inbounds %struct.IDEState, ptr %12, i32 0, i32 19
  %13 = load i32, ptr %nsector, align 4
  %and = and i32 %13, 255
  %or8 = or i32 %or7, %and
  %14 = load ptr, ptr %pr, align 8
  %sig = getelementptr inbounds %struct.AHCIPortRegs, ptr %14, i32 0, i32 9
  store i32 %or8, ptr %sig, align 4
  br label %if.end9

if.end9:                                          ; preds = %if.then1, %if.end, %if.then
  ret void
}