; Function Attrs: nounwind sspstrong uwtable
define internal fastcc void @ahci_init_d2h(ptr noundef captures(none) %ad) unnamed_addr #0 {
entry:
  %init_d2h_sent = getelementptr inbounds nuw i8, ptr %ad, i64 2480
  %0 = load i8, ptr %init_d2h_sent, align 8
  %tobool = trunc i8 %0 to i1
  br i1 %tobool, label %if.end9, label %if.end

if.end:                                           ; preds = %entry
  %res_fis.i = getelementptr inbounds nuw i8, ptr %ad, i64 2464
  %1 = load ptr, ptr %res_fis.i, align 8
  %tobool.not.i = icmp eq ptr %1, null
  br i1 %tobool.not.i, label %if.end9, label %lor.lhs.false.i

lor.lhs.false.i:                                  ; preds = %if.end
  %cmd.i = getelementptr inbounds nuw i8, ptr %ad, i64 2396
  %2 = load i32, ptr %cmd.i, align 4
  %and.i = and i32 %2, 16
  %tobool1.not.i = icmp eq i32 %and.i, 0
  br i1 %tobool1.not.i, label %if.end9, label %if.then1

if.then1:                                         ; preds = %lor.lhs.false.i
  %arrayidx3.i = getelementptr i8, ptr %1, i64 64
  store i8 52, ptr %arrayidx3.i, align 1
  %arrayidx6.i = getelementptr i8, ptr %1, i64 65
  store i8 64, ptr %arrayidx6.i, align 1
  %status.i = getelementptr inbounds nuw i8, ptr %ad, i64 857
  %3 = load i8, ptr %status.i, align 1
  %arrayidx7.i = getelementptr i8, ptr %1, i64 66
  store i8 %3, ptr %arrayidx7.i, align 1
  %error.i = getelementptr inbounds nuw i8, ptr %ad, i64 841
  %4 = load i8, ptr %error.i, align 1
  %arrayidx8.i = getelementptr i8, ptr %1, i64 67
  store i8 %4, ptr %arrayidx8.i, align 1
  %sector.i = getelementptr inbounds nuw i8, ptr %ad, i64 848
  %5 = load i8, ptr %sector.i, align 8
  %arrayidx9.i = getelementptr i8, ptr %1, i64 68
  store i8 %5, ptr %arrayidx9.i, align 1
  %lcyl.i = getelementptr i8, ptr %ad, i64 849
  %6 = load i8, ptr %lcyl.i, align 1
  %arrayidx10.i = getelementptr i8, ptr %1, i64 69
  store i8 %6, ptr %arrayidx10.i, align 1
  %hcyl.i = getelementptr inbounds nuw i8, ptr %ad, i64 850
  %7 = load i8, ptr %hcyl.i, align 2
  %arrayidx11.i = getelementptr i8, ptr %1, i64 70
  store i8 %7, ptr %arrayidx11.i, align 1
  %select.i = getelementptr inbounds nuw i8, ptr %ad, i64 856
  %8 = load i8, ptr %select.i, align 8
  %arrayidx12.i = getelementptr i8, ptr %1, i64 71
  store i8 %8, ptr %arrayidx12.i, align 1
  %hob_sector.i = getelementptr inbounds nuw i8, ptr %ad, i64 853
  %9 = load i8, ptr %hob_sector.i, align 1
  %arrayidx13.i = getelementptr i8, ptr %1, i64 72
  store i8 %9, ptr %arrayidx13.i, align 1
  %hob_lcyl.i = getelementptr inbounds nuw i8, ptr %ad, i64 854
  %10 = load i8, ptr %hob_lcyl.i, align 2
  %arrayidx14.i = getelementptr i8, ptr %1, i64 73
  store i8 %10, ptr %arrayidx14.i, align 1
  %hob_hcyl.i = getelementptr inbounds nuw i8, ptr %ad, i64 855
  %11 = load i8, ptr %hob_hcyl.i, align 1
  %arrayidx15.i = getelementptr i8, ptr %1, i64 74
  store i8 %11, ptr %arrayidx15.i, align 1
  %arrayidx16.i = getelementptr i8, ptr %1, i64 75
  store i8 0, ptr %arrayidx16.i, align 1
  %nsector.i = getelementptr inbounds nuw i8, ptr %ad, i64 844
  %12 = load i32, ptr %nsector.i, align 4
  %conv18.i = trunc i32 %12 to i8
  %arrayidx19.i = getelementptr i8, ptr %1, i64 76
  store i8 %conv18.i, ptr %arrayidx19.i, align 1
  %13 = load i32, ptr %nsector.i, align 4
  %shr.i = lshr i32 %13, 8
  %conv22.i = trunc i32 %shr.i to i8
  %arrayidx23.i = getelementptr i8, ptr %1, i64 77
  store i8 %conv22.i, ptr %arrayidx23.i, align 1
  %scevgep.i = getelementptr i8, ptr %1, i64 78
  tail call void @llvm.memset.p0.i64(ptr noundef nonnull align 1 dereferenceable(6) %scevgep.i, i8 0, i64 6, i1 false)
  %14 = load i8, ptr %error.i, align 1
  %conv30.i = zext i8 %14 to i32
  %shl.i = shl nuw nsw i32 %conv30.i, 8
  %15 = load i8, ptr %status.i, align 1
  %conv35.i = zext i8 %15 to i32
  %or.i = or disjoint i32 %shl.i, %conv35.i
  %tfdata.i = getelementptr inbounds nuw i8, ptr %ad, i64 2404
  store i32 %or.i, ptr %tfdata.i, align 4
  %16 = load i8, ptr %arrayidx7.i, align 1
  %17 = and i8 %16, 1
  %tobool39.not.i.not = icmp eq i8 %17, 0
  %.mux.i = select i1 %tobool39.not.i.not, i32 0, i32 30
  %hba.i = getelementptr inbounds nuw i8, ptr %ad, i64 2440
  %18 = load ptr, ptr %hba.i, align 8
  tail call fastcc void @ahci_trigger_irq(ptr noundef %18, ptr noundef nonnull %ad, i32 noundef %.mux.i)
  store i8 1, ptr %init_d2h_sent, align 8
  %19 = load i16, ptr %lcyl.i, align 1
  %20 = zext i16 %19 to i32
  %21 = shl nuw i32 %20, 16
  %22 = load i8, ptr %sector.i, align 8
  %conv5 = zext i8 %22 to i32
  %shl6 = shl nuw nsw i32 %conv5, 8
  %or7 = or disjoint i32 %shl6, %21
  %23 = load i32, ptr %nsector.i, align 4
  %and = and i32 %23, 255
  %or8 = or disjoint i32 %or7, %and
  %sig = getelementptr inbounds nuw i8, ptr %ad, i64 2408
  store i32 %or8, ptr %sig, align 4
  br label %if.end9

if.end9:                                          ; preds = %if.end, %lor.lhs.false.i, %entry, %if.then1
  ret void
}